target datalayout = "e-m:e-p270:32:32-p271:32:32-p272:64:64-i64:64-i128:128-f80:128-n8:16:32:64-S128"
target triple = "x86_64-unknown-linux-gnu"

%"class.QuantLib::CEVRNDCalculator" = type { %"class.QuantLib::RiskNeutralDensityCalculator", double, double, double, double, double }
%"class.QuantLib::RiskNeutralDensityCalculator" = type { ptr }

; Function Attrs: inlinehint mustprogress nounwind uwtable
define linkonce_odr noundef double @_ZN8QuantLib7squaredIdEET_S1_(double noundef %x) #1 comdat {
entry:
  %x.addr = alloca double, align 8
  store double %x, ptr %x.addr, align 8, !tbaa !7
  %0 = load double, ptr %x.addr, align 8, !tbaa !7
  %1 = load double, ptr %x.addr, align 8, !tbaa !7
  %mul = fmul double %0, %1
  ret double %mul
}

; Function Attrs: mustprogress uwtable
define noundef double @_ZNK8QuantLib16CEVRNDCalculator1XEd(ptr noundef nonnull align 8 dereferenceable(48) %this, double noundef %f) #0 align 2 {
entry:
  %this.addr = alloca ptr, align 8
  %f.addr = alloca double, align 8
  store ptr %this, ptr %this.addr, align 8, !tbaa !3
  store double %f, ptr %f.addr, align 8, !tbaa !7
  %this1 = load ptr, ptr %this.addr, align 8
  %0 = load double, ptr %f.addr, align 8, !tbaa !7
  %beta_ = getelementptr inbounds nuw %"class.QuantLib::CEVRNDCalculator", ptr %this1, i32 0, i32 3
  %1 = load double, ptr %beta_, align 8, !tbaa !15
  %sub = fsub double 1.000000e+00, %1
  %mul = fmul double 2.000000e+00, %sub
  %call = call double @pow(double noundef %0, double noundef %mul) #25, !tbaa !18
  %alpha_ = getelementptr inbounds nuw %"class.QuantLib::CEVRNDCalculator", ptr %this1, i32 0, i32 2
  %2 = load double, ptr %alpha_, align 8, !tbaa !14
  %beta_2 = getelementptr inbounds nuw %"class.QuantLib::CEVRNDCalculator", ptr %this1, i32 0, i32 3
  %3 = load double, ptr %beta_2, align 8, !tbaa !15
  %sub3 = fsub double 1.000000e+00, %3
  %mul4 = fmul double %2, %sub3
  %call5 = call noundef double @_ZN8QuantLib7squaredIdEET_S1_(double noundef %mul4)
  %div = fdiv double %call, %call5
  ret double %div
}