; Function Attrs: mustprogress nofree nounwind willreturn memory(write, argmem: readwrite) uwtable
define noundef double @_ZNK8QuantLib16CEVRNDCalculator1XEd(ptr nocapture noundef nonnull readonly align 8 dereferenceable(48) %this, double noundef %f) local_unnamed_addr #2 align 2 {
entry:
  %beta_ = getelementptr inbounds nuw i8, ptr %this, i64 24
  %0 = load double, ptr %beta_, align 8, !tbaa !12
  %sub = fsub double 1.000000e+00, %0
  %mul = fmul double %sub, 2.000000e+00
  %call = tail call double @pow(double noundef %f, double noundef %mul) #34, !tbaa !14
  %alpha_ = getelementptr inbounds nuw i8, ptr %this, i64 16
  %1 = load double, ptr %alpha_, align 8, !tbaa !11
  %mul4 = fmul double %sub, %1
  %mul.i = fmul double %mul4, %mul4
  %div = fdiv double %call, %mul.i
  ret double %div
}